target datalayout = "e-m:e-p270:32:32-p271:32:32-p272:64:64-i64:64-i128:128-f80:128-n8:16:32:64-S128"
target triple = "x86_64-pc-linux-gnu"

@.str.4 = private unnamed_addr constant [2 x i8] c"\0A\00", align 1
@.str.5 = private unnamed_addr constant [26 x i8] c"    uniquify [selection]\0A\00", align 1
@.str.6 = private unnamed_addr constant [76 x i8] c"By default, a module that is instantiated by several other modules is only\0A\00", align 1
@.str.7 = private unnamed_addr constant [79 x i8] c"kept once in the design. This preserves the original modularity of the design\0A\00", align 1
@.str.8 = private unnamed_addr constant [79 x i8] c"and reduces the overall size of the design in memory. But it prevents certain\0A\00", align 1
@.str.9 = private unnamed_addr constant [76 x i8] c"optimizations and other operations on the design. This pass creates unique\0A\00", align 1
@.str.10 = private unnamed_addr constant [73 x i8] c"modules for all selected cells. The created modules are marked with the\0A\00", align 1
@.str.11 = private unnamed_addr constant [21 x i8] c"'unique' attribute.\0A\00", align 1
@.str.12 = private unnamed_addr constant [75 x i8] c"This commands only operates on modules that by themself have the 'unique'\0A\00", align 1
@.str.13 = private unnamed_addr constant [56 x i8] c"attribute set (the 'top' module is unique implicitly).\0A\00", align 1

; Function Attrs: mustprogress uwtable
define internal void @_ZN12_GLOBAL__N_112UniquifyPass4helpEv(ptr noundef nonnull align 8 dereferenceable(104) %0) unnamed_addr #4 align 2 {
  %2 = alloca ptr, align 8
  store ptr %0, ptr %2, align 8, !tbaa !6
  call void (ptr, ...) @_ZN5Yosys3logEPKcz(ptr noundef @.str.4)
  call void (ptr, ...) @_ZN5Yosys3logEPKcz(ptr noundef @.str.5)
  call void (ptr, ...) @_ZN5Yosys3logEPKcz(ptr noundef @.str.4)
  call void (ptr, ...) @_ZN5Yosys3logEPKcz(ptr noundef @.str.6)
  call void (ptr, ...) @_ZN5Yosys3logEPKcz(ptr noundef @.str.7)
  call void (ptr, ...) @_ZN5Yosys3logEPKcz(ptr noundef @.str.8)
  call void (ptr, ...) @_ZN5Yosys3logEPKcz(ptr noundef @.str.9)
  call void (ptr, ...) @_ZN5Yosys3logEPKcz(ptr noundef @.str.10)
  call void (ptr, ...) @_ZN5Yosys3logEPKcz(ptr noundef @.str.11)
  call void (ptr, ...) @_ZN5Yosys3logEPKcz(ptr noundef @.str.4)
  call void (ptr, ...) @_ZN5Yosys3logEPKcz(ptr noundef @.str.12)
  call void (ptr, ...) @_ZN5Yosys3logEPKcz(ptr noundef @.str.13)
  call void (ptr, ...) @_ZN5Yosys3logEPKcz(ptr noundef @.str.4)
  ret void
}